	.text
	.file	"test1.bc"
	.globl	loop
	.align	16, 0x90
	.type	loop,@function
loop:                                   # @loop
.Lfunc_begin0:
	.file	1 "test1.c"
	.loc	1 12 0                  # test1.c:12:0
	.cfi_startproc
# BB#0:
	pushq	%rbp
.Ltmp0:
	.cfi_def_cfa_offset 16
.Ltmp1:
	.cfi_offset %rbp, -16
	movq	%rsp, %rbp
.Ltmp2:
	.cfi_def_cfa_register %rbp
	movl	%edi, -4(%rbp)
	movl	%esi, -8(%rbp)
	.loc	1 13 18 prologue_end    # test1.c:13:18
.Ltmp3:
	movl	-8(%rbp), %esi
	.loc	1 13 9 is_stmt 0        # test1.c:13:9
	movl	%esi, -12(%rbp)
	.loc	1 14 13 is_stmt 1       # test1.c:14:13
.Ltmp4:
	movl	$0, -16(%rbp)
.LBB0_1:                                # =>This Inner Loop Header: Depth=1
	.loc	1 14 18 is_stmt 0 discriminator 1 # test1.c:14:18
.Ltmp5:
	movl	-16(%rbp), %eax
	.loc	1 14 19 discriminator 1 # test1.c:14:19
	cmpl	-4(%rbp), %eax
	.loc	1 14 5 discriminator 1  # test1.c:14:5
	jge	.LBB0_4
# BB#2:                                 #   in Loop: Header=BB0_1 Depth=1
	.loc	1 15 17 is_stmt 1       # test1.c:15:17
	movl	-12(%rbp), %eax
	.loc	1 15 24 is_stmt 0       # test1.c:15:24
	imull	-8(%rbp), %eax
	.loc	1 15 15                 # test1.c:15:15
	movl	%eax, -12(%rbp)
# BB#3:                                 #   in Loop: Header=BB0_1 Depth=1
	.loc	1 14 25 is_stmt 1 discriminator 2 # test1.c:14:25
	movl	-16(%rbp), %eax
	addl	$1, %eax
	movl	%eax, -16(%rbp)
	.loc	1 14 5 is_stmt 0 discriminator 2 # test1.c:14:5
	jmp	.LBB0_1
.Ltmp6:
.LBB0_4:
	.loc	1 16 13 is_stmt 1       # test1.c:16:13
	movl	-12(%rbp), %eax
	.loc	1 16 6 is_stmt 0        # test1.c:16:6
	popq	%rbp
	retq
.Ltmp7:
.Lfunc_end0:
	.size	loop, .Lfunc_end0-loop
	.cfi_endproc

	.globl	foo
	.align	16, 0x90
	.type	foo,@function
foo:                                    # @foo
.Lfunc_begin1:
	.loc	1 19 0 is_stmt 1        # test1.c:19:0
	.cfi_startproc
# BB#0:
	pushq	%rbp
.Ltmp8:
	.cfi_def_cfa_offset 16
.Ltmp9:
	.cfi_offset %rbp, -16
	movq	%rsp, %rbp
.Ltmp10:
	.cfi_def_cfa_register %rbp
	subq	$48, %rsp
	movl	%edi, -8(%rbp)
	movl	%esi, -12(%rbp)
	.loc	1 20 11 prologue_end    # test1.c:20:11
.Ltmp11:
	cmpl	$0, -12(%rbp)
.Ltmp12:
	.loc	1 20 9 is_stmt 0        # test1.c:20:9
	jle	.LBB1_6
# BB#1:
	.loc	1 21 14 is_stmt 1       # test1.c:21:14
.Ltmp13:
	cmpl	$1, -8(%rbp)
.Ltmp14:
	.loc	1 21 13 is_stmt 0       # test1.c:21:13
	jge	.LBB1_3
# BB#2:
	movl	$3, %edi
	movl	$2, %esi
	.loc	1 22 27 is_stmt 1       # test1.c:22:27
.Ltmp15:
	callq	loop
	movabsq	$.L.str, %rdi
	.loc	1 22 12 is_stmt 0 discriminator 1 # test1.c:22:12
	movl	%eax, %esi
	movb	$0, %al
	callq	printf
	.loc	1 23 12 is_stmt 1       # test1.c:23:12
	movl	$1, -4(%rbp)
	movl	%eax, -16(%rbp)         # 4-byte Spill
	jmp	.LBB1_15
.Ltmp16:
.LBB1_3:
	.loc	1 25 19                 # test1.c:25:19
	cmpl	$5, -8(%rbp)
.Ltmp17:
	.loc	1 25 18 is_stmt 0       # test1.c:25:18
	jge	.LBB1_5
# BB#4:
	movl	$4, %edi
	movl	$2, %esi
	.loc	1 26 27 is_stmt 1       # test1.c:26:27
.Ltmp18:
	callq	loop
	movabsq	$.L.str, %rdi
	.loc	1 26 12 is_stmt 0 discriminator 1 # test1.c:26:12
	movl	%eax, %esi
	movb	$0, %al
	callq	printf
	.loc	1 27 12 is_stmt 1       # test1.c:27:12
	movl	$1, -4(%rbp)
	movl	%eax, -20(%rbp)         # 4-byte Spill
	jmp	.LBB1_15
.Ltmp19:
.LBB1_5:
	movl	$5, %edi
	movl	$2, %esi
	.loc	1 30 27                 # test1.c:30:27
.Ltmp20:
	callq	loop
	movabsq	$.L.str, %rdi
	.loc	1 30 12 is_stmt 0 discriminator 1 # test1.c:30:12
	movl	%eax, %esi
	movb	$0, %al
	callq	printf
	.loc	1 31 12 is_stmt 1       # test1.c:31:12
	movl	$1, -4(%rbp)
	movl	%eax, -24(%rbp)         # 4-byte Spill
	jmp	.LBB1_15
.Ltmp21:
.LBB1_6:
	.loc	1 35 14                 # test1.c:35:14
	cmpl	$0, -8(%rbp)
.Ltmp22:
	.loc	1 35 13 is_stmt 0       # test1.c:35:13
	jge	.LBB1_14
# BB#7:
	.loc	1 36 18 is_stmt 1       # test1.c:36:18
.Ltmp23:
	cmpl	$-10, -12(%rbp)
.Ltmp24:
	.loc	1 36 16 is_stmt 0       # test1.c:36:16
	jle	.LBB1_11
# BB#8:
	.loc	1 37 21 is_stmt 1       # test1.c:37:21
.Ltmp25:
	cmpl	$-1, -8(%rbp)
.Ltmp26:
	.loc	1 37 19 is_stmt 0       # test1.c:37:19
	jne	.LBB1_10
# BB#9:
	movl	$6, %edi
	movl	$2, %esi
	.loc	1 38 33 is_stmt 1       # test1.c:38:33
.Ltmp27:
	callq	loop
	movabsq	$.L.str, %rdi
	.loc	1 38 18 is_stmt 0 discriminator 1 # test1.c:38:18
	movl	%eax, %esi
	movb	$0, %al
	callq	printf
	.loc	1 39 18 is_stmt 1       # test1.c:39:18
	movl	$1, -4(%rbp)
	movl	%eax, -28(%rbp)         # 4-byte Spill
	jmp	.LBB1_15
.Ltmp28:
.LBB1_10:
	movl	$7, %edi
	movl	$2, %esi
	.loc	1 42 33                 # test1.c:42:33
.Ltmp29:
	callq	loop
	movabsq	$.L.str, %rdi
	.loc	1 42 18 is_stmt 0 discriminator 1 # test1.c:42:18
	movl	%eax, %esi
	movb	$0, %al
	callq	printf
	.loc	1 43 18 is_stmt 1       # test1.c:43:18
	movl	$1, -4(%rbp)
	movl	%eax, -32(%rbp)         # 4-byte Spill
	jmp	.LBB1_15
.Ltmp30:
.LBB1_11:
	.loc	1 47 21                 # test1.c:47:21
	cmpl	$-1, -8(%rbp)
.Ltmp31:
	.loc	1 47 19 is_stmt 0       # test1.c:47:19
	jne	.LBB1_13
# BB#12:
	movl	$8, %edi
	movl	$2, %esi
	.loc	1 48 33 is_stmt 1       # test1.c:48:33
.Ltmp32:
	callq	loop
	movabsq	$.L.str, %rdi
	.loc	1 48 18 is_stmt 0 discriminator 1 # test1.c:48:18
	movl	%eax, %esi
	movb	$0, %al
	callq	printf
	.loc	1 49 18 is_stmt 1       # test1.c:49:18
	movl	$1, -4(%rbp)
	movl	%eax, -36(%rbp)         # 4-byte Spill
	jmp	.LBB1_15
.Ltmp33:
.LBB1_13:
	movl	$9, %edi
	movl	$2, %esi
	.loc	1 52 33                 # test1.c:52:33
.Ltmp34:
	callq	loop
	movabsq	$.L.str, %rdi
	.loc	1 52 18 is_stmt 0 discriminator 1 # test1.c:52:18
	movl	%eax, %esi
	movb	$0, %al
	callq	printf
	.loc	1 53 18 is_stmt 1       # test1.c:53:18
	movl	$1, -4(%rbp)
	movl	%eax, -40(%rbp)         # 4-byte Spill
	jmp	.LBB1_15
.Ltmp35:
.LBB1_14:
	movl	$10, %edi
	movl	$2, %esi
	.loc	1 58 27                 # test1.c:58:27
.Ltmp36:
	callq	loop
	movabsq	$.L.str, %rdi
	.loc	1 58 12 is_stmt 0 discriminator 1 # test1.c:58:12
	movl	%eax, %esi
	movb	$0, %al
	callq	printf
	.loc	1 59 12 is_stmt 1       # test1.c:59:12
	movl	$1, -4(%rbp)
	movl	%eax, -44(%rbp)         # 4-byte Spill
.Ltmp37:
.LBB1_15:
	.loc	1 62 1                  # test1.c:62:1
	movl	-4(%rbp), %eax
	addq	$48, %rsp
	popq	%rbp
	retq
.Ltmp38:
.Lfunc_end1:
	.size	foo, .Lfunc_end1-foo
	.cfi_endproc

	.type	.L.str,@object          # @.str
	.section	.rodata.str1.1,"aMS",@progbits,1
.L.str:
	.asciz	"%d\n"
	.size	.L.str, 4

	.section	".note.GNU-stack","",@progbits