	.text
	.file	"test4.bc"
	.globl	loop
	.align	16, 0x90
	.type	loop,@function
loop:                                   # @loop
.Lfunc_begin0:
	.file	1 "test4.c"
	.loc	1 20 0                  # test4.c:20:0
	.cfi_startproc
# BB#0:
	pushq	%rbp
.Ltmp0:
	.cfi_def_cfa_offset 16
.Ltmp1:
	.cfi_offset %rbp, -16
	movq	%rsp, %rbp
.Ltmp2:
	.cfi_def_cfa_register %rbp
	movl	%edi, -4(%rbp)
	movl	%esi, -8(%rbp)
	.loc	1 21 18 prologue_end    # test4.c:21:18
.Ltmp3:
	movl	-8(%rbp), %esi
	.loc	1 21 9 is_stmt 0        # test4.c:21:9
	movl	%esi, -12(%rbp)
	.loc	1 22 13 is_stmt 1       # test4.c:22:13
.Ltmp4:
	movl	$0, -16(%rbp)
.LBB0_1:                                # =>This Inner Loop Header: Depth=1
	.loc	1 22 18 is_stmt 0 discriminator 1 # test4.c:22:18
.Ltmp5:
	movl	-16(%rbp), %eax
	.loc	1 22 19 discriminator 1 # test4.c:22:19
	cmpl	-4(%rbp), %eax
	.loc	1 22 5 discriminator 1  # test4.c:22:5
	jge	.LBB0_4
# BB#2:                                 #   in Loop: Header=BB0_1 Depth=1
	.loc	1 23 17 is_stmt 1       # test4.c:23:17
	movl	-12(%rbp), %eax
	.loc	1 23 24 is_stmt 0       # test4.c:23:24
	imull	-8(%rbp), %eax
	.loc	1 23 15                 # test4.c:23:15
	movl	%eax, -12(%rbp)
# BB#3:                                 #   in Loop: Header=BB0_1 Depth=1
	.loc	1 22 25 is_stmt 1 discriminator 2 # test4.c:22:25
	movl	-16(%rbp), %eax
	addl	$1, %eax
	movl	%eax, -16(%rbp)
	.loc	1 22 5 is_stmt 0 discriminator 2 # test4.c:22:5
	jmp	.LBB0_1
.Ltmp6:
.LBB0_4:
	.loc	1 24 13 is_stmt 1       # test4.c:24:13
	movl	-12(%rbp), %eax
	.loc	1 24 6 is_stmt 0        # test4.c:24:6
	popq	%rbp
	retq
.Ltmp7:
.Lfunc_end0:
	.size	loop, .Lfunc_end0-loop
	.cfi_endproc

	.globl	foo
	.align	16, 0x90
	.type	foo,@function
foo:                                    # @foo
.Lfunc_begin1:
	.loc	1 27 0 is_stmt 1        # test4.c:27:0
	.cfi_startproc
# BB#0:
	pushq	%rbp
.Ltmp8:
	.cfi_def_cfa_offset 16
.Ltmp9:
	.cfi_offset %rbp, -16
	movq	%rsp, %rbp
.Ltmp10:
	.cfi_def_cfa_register %rbp
	subq	$64, %rsp
	movq	%rdi, -16(%rbp)
	movq	%rsi, -24(%rbp)
	.loc	1 28 13 prologue_end    # test4.c:28:13
.Ltmp11:
	movq	-24(%rbp), %rsi
	.loc	1 28 19 is_stmt 0       # test4.c:28:19
	cmpl	$0, (%rsi)
.Ltmp12:
	.loc	1 28 9                  # test4.c:28:9
	jle	.LBB1_6
# BB#1:
	.loc	1 29 17 is_stmt 1       # test4.c:29:17
.Ltmp13:
	movq	-16(%rbp), %rax
	.loc	1 29 22 is_stmt 0       # test4.c:29:22
	cmpl	$1, (%rax)
.Ltmp14:
	.loc	1 29 13                 # test4.c:29:13
	jge	.LBB1_3
# BB#2:
	movl	$3, %edi
	movl	$2, %esi
	.loc	1 30 27 is_stmt 1       # test4.c:30:27
.Ltmp15:
	callq	loop
	movabsq	$.L.str, %rdi
	.loc	1 30 12 is_stmt 0 discriminator 1 # test4.c:30:12
	movl	%eax, %esi
	movb	$0, %al
	callq	printf
	.loc	1 31 12 is_stmt 1       # test4.c:31:12
	movl	$1, -4(%rbp)
	movl	%eax, -28(%rbp)         # 4-byte Spill
	jmp	.LBB1_15
.Ltmp16:
.LBB1_3:
	.loc	1 33 22                 # test4.c:33:22
	movq	-16(%rbp), %rax
	.loc	1 33 27 is_stmt 0       # test4.c:33:27
	cmpl	$5, (%rax)
.Ltmp17:
	.loc	1 33 18                 # test4.c:33:18
	jge	.LBB1_5
# BB#4:
	movl	$4, %edi
	movl	$2, %esi
	.loc	1 34 27 is_stmt 1       # test4.c:34:27
.Ltmp18:
	callq	loop
	movabsq	$.L.str, %rdi
	.loc	1 34 12 is_stmt 0 discriminator 1 # test4.c:34:12
	movl	%eax, %esi
	movb	$0, %al
	callq	printf
	.loc	1 35 12 is_stmt 1       # test4.c:35:12
	movl	$1, -4(%rbp)
	movl	%eax, -32(%rbp)         # 4-byte Spill
	jmp	.LBB1_15
.Ltmp19:
.LBB1_5:
	movl	$5, %edi
	movl	$2, %esi
	.loc	1 38 27                 # test4.c:38:27
.Ltmp20:
	callq	loop
	movabsq	$.L.str, %rdi
	.loc	1 38 12 is_stmt 0 discriminator 1 # test4.c:38:12
	movl	%eax, %esi
	movb	$0, %al
	callq	printf
	.loc	1 39 12 is_stmt 1       # test4.c:39:12
	movl	$1, -4(%rbp)
	movl	%eax, -36(%rbp)         # 4-byte Spill
	jmp	.LBB1_15
.Ltmp21:
.LBB1_6:
	.loc	1 43 17                 # test4.c:43:17
	movq	-16(%rbp), %rax
	.loc	1 43 22 is_stmt 0       # test4.c:43:22
	cmpl	$0, (%rax)
.Ltmp22:
	.loc	1 43 13                 # test4.c:43:13
	jge	.LBB1_14
# BB#7:
	.loc	1 44 20 is_stmt 1       # test4.c:44:20
.Ltmp23:
	movq	-24(%rbp), %rax
	.loc	1 44 26 is_stmt 0       # test4.c:44:26
	cmpl	$-10, (%rax)
.Ltmp24:
	.loc	1 44 16                 # test4.c:44:16
	jle	.LBB1_11
# BB#8:
	.loc	1 45 23 is_stmt 1       # test4.c:45:23
.Ltmp25:
	movq	-16(%rbp), %rax
	.loc	1 45 29 is_stmt 0       # test4.c:45:29
	cmpl	$-1, (%rax)
.Ltmp26:
	.loc	1 45 19                 # test4.c:45:19
	jne	.LBB1_10
# BB#9:
	movl	$6, %edi
	movl	$2, %esi
	.loc	1 46 33 is_stmt 1       # test4.c:46:33
.Ltmp27:
	callq	loop
	movabsq	$.L.str, %rdi
	.loc	1 46 18 is_stmt 0 discriminator 1 # test4.c:46:18
	movl	%eax, %esi
	movb	$0, %al
	callq	printf
	.loc	1 47 18 is_stmt 1       # test4.c:47:18
	movl	$1, -4(%rbp)
	movl	%eax, -40(%rbp)         # 4-byte Spill
	jmp	.LBB1_15
.Ltmp28:
.LBB1_10:
	movl	$7, %edi
	movl	$2, %esi
	.loc	1 50 33                 # test4.c:50:33
.Ltmp29:
	callq	loop
	movabsq	$.L.str, %rdi
	.loc	1 50 18 is_stmt 0 discriminator 1 # test4.c:50:18
	movl	%eax, %esi
	movb	$0, %al
	callq	printf
	.loc	1 51 18 is_stmt 1       # test4.c:51:18
	movl	$1, -4(%rbp)
	movl	%eax, -44(%rbp)         # 4-byte Spill
	jmp	.LBB1_15
.Ltmp30:
.LBB1_11:
	.loc	1 55 23                 # test4.c:55:23
	movq	-16(%rbp), %rax
	.loc	1 55 29 is_stmt 0       # test4.c:55:29
	cmpl	$-1, (%rax)
.Ltmp31:
	.loc	1 55 19                 # test4.c:55:19
	jne	.LBB1_13
# BB#12:
	movl	$8, %edi
	movl	$2, %esi
	.loc	1 56 33 is_stmt 1       # test4.c:56:33
.Ltmp32:
	callq	loop
	movabsq	$.L.str, %rdi
	.loc	1 56 18 is_stmt 0 discriminator 1 # test4.c:56:18
	movl	%eax, %esi
	movb	$0, %al
	callq	printf
	.loc	1 57 18 is_stmt 1       # test4.c:57:18
	movl	$1, -4(%rbp)
	movl	%eax, -48(%rbp)         # 4-byte Spill
	jmp	.LBB1_15
.Ltmp33:
.LBB1_13:
	movl	$9, %edi
	movl	$2, %esi
	.loc	1 60 33                 # test4.c:60:33
.Ltmp34:
	callq	loop
	movabsq	$.L.str, %rdi
	.loc	1 60 18 is_stmt 0 discriminator 1 # test4.c:60:18
	movl	%eax, %esi
	movb	$0, %al
	callq	printf
	.loc	1 61 18 is_stmt 1       # test4.c:61:18
	movl	$1, -4(%rbp)
	movl	%eax, -52(%rbp)         # 4-byte Spill
	jmp	.LBB1_15
.Ltmp35:
.LBB1_14:
	movl	$10, %edi
	movl	$2, %esi
	.loc	1 66 27                 # test4.c:66:27
.Ltmp36:
	callq	loop
	movabsq	$.L.str, %rdi
	.loc	1 66 12 is_stmt 0 discriminator 1 # test4.c:66:12
	movl	%eax, %esi
	movb	$0, %al
	callq	printf
	.loc	1 67 12 is_stmt 1       # test4.c:67:12
	movl	$1, -4(%rbp)
	movl	%eax, -56(%rbp)         # 4-byte Spill
.Ltmp37:
.LBB1_15:
	.loc	1 70 1                  # test4.c:70:1
	movl	-4(%rbp), %eax
	addq	$64, %rsp
	popq	%rbp
	retq
.Ltmp38:
.Lfunc_end1:
	.size	foo, .Lfunc_end1-foo
	.cfi_endproc

	.type	.L.str,@object          # @.str
	.section	.rodata.str1.1,"aMS",@progbits,1
.L.str:
	.asciz	"%d\n"
	.size	.L.str, 4

	.section	".note.GNU-stack","",@progbits